target datalayout = "e-m:e-p270:32:32-p271:32:32-p272:64:64-i64:64-i128:128-f80:128-n8:16:32:64-S128"
target triple = "x86_64-pc-linux-gnu"

%struct.coll_env = type { ptr, %struct.coll_env_coll, i32 }
%struct.coll_env_coll = type { %struct.tMPI_Atomic, %struct.tMPI_Atomic, ptr }
%struct.tMPI_Atomic = type { i32, [60 x i8] }
%struct.coll_env_thread = type { %struct.tMPI_Atomic, %struct.tMPI_Atomic, i32, ptr, ptr, ptr, %struct.tMPI_Event_t, %struct.tMPI_Event_t, ptr }
%struct.tMPI_Event_t = type { %struct.tMPI_Atomic, i32 }

; Function Attrs: mustprogress uwtable
define void @_Z18tMPI_Wait_for_dataP11tmpi_threadP8coll_envi(ptr noundef %0, ptr noundef %1, i32 noundef %2) #0 {
  %4 = alloca ptr, align 8
  %5 = alloca ptr, align 8
  %6 = alloca i32, align 4
  store ptr %0, ptr %4, align 8, !tbaa !72
  store ptr %1, ptr %5, align 8, !tbaa !3
  store i32 %2, ptr %6, align 4, !tbaa !8
  %7 = load ptr, ptr %5, align 8, !tbaa !3
  %8 = getelementptr inbounds nuw %struct.coll_env, ptr %7, i32 0, i32 0
  %9 = load ptr, ptr %8, align 8, !tbaa !10
  %10 = load i32, ptr %6, align 4, !tbaa !8
  %11 = sext i32 %10 to i64
  %12 = getelementptr inbounds %struct.coll_env_thread, ptr %9, i64 %11
  %13 = getelementptr inbounds nuw %struct.coll_env_thread, ptr %12, i32 0, i32 7
  %14 = call noundef i32 @_Z15tMPI_Event_waitP12tMPI_Event_t(ptr noundef %13)
  %15 = load ptr, ptr %5, align 8, !tbaa !3
  %16 = getelementptr inbounds nuw %struct.coll_env, ptr %15, i32 0, i32 0
  %17 = load ptr, ptr %16, align 8, !tbaa !10
  %18 = load i32, ptr %6, align 4, !tbaa !8
  %19 = sext i32 %18 to i64
  %20 = getelementptr inbounds %struct.coll_env_thread, ptr %17, i64 %19
  %21 = getelementptr inbounds nuw %struct.coll_env_thread, ptr %20, i32 0, i32 7
  %22 = getelementptr inbounds nuw %struct.tMPI_Event_t, ptr %21, i32 0, i32 1
  %23 = load i32, ptr %22, align 4, !tbaa !74
  %24 = add nsw i32 %23, 1
  store i32 %24, ptr %22, align 4, !tbaa !74
  ret void
}