; Function Attrs: mustprogress uwtable
define void @_Z18tMPI_Wait_for_dataP11tmpi_threadP8coll_envi(ptr noundef readnone captures(none) %0, ptr noundef readonly captures(none) %1, i32 noundef %2) local_unnamed_addr #0 {
  %4 = load ptr, ptr %1, align 8, !tbaa !3
  %5 = sext i32 %2 to i64
  %6 = getelementptr inbounds %struct.coll_env_thread, ptr %4, i64 %5, i32 7
  %7 = tail call noundef i32 @_Z15tMPI_Event_waitP12tMPI_Event_t(ptr noundef nonnull %6)
  %8 = load ptr, ptr %1, align 8, !tbaa !3
  %9 = getelementptr inbounds %struct.coll_env_thread, ptr %8, i64 %5, i32 7, i32 1
  %10 = load i32, ptr %9, align 4, !tbaa !65
  %11 = add nsw i32 %10, 1
  store i32 %11, ptr %9, align 4, !tbaa !65
  ret void
}